target datalayout = "e-m:e-p270:32:32-p271:32:32-p272:64:64-i64:64-i128:128-f80:128-n8:16:32:64-S128"
target triple = "x86_64-pc-linux-gnu"

@progname = internal global ptr @.str.13, align 8
@Output = internal global [9 x i8] c"luac.out\00", align 1
@stderr = external global ptr, align 8
@.str.14 = private unnamed_addr constant [30 x i8] c"%s: unrecognized option '%s'\0A\00", align 1
@.str.15 = private unnamed_addr constant [8 x i8] c"%s: %s\0A\00", align 1

; Function Attrs: nounwind uwtable
define internal void @usage(ptr noundef %0) #0 {
  %2 = alloca ptr, align 8
  store ptr %0, ptr %2, align 8, !tbaa !16
  %3 = load ptr, ptr %2, align 8, !tbaa !16
  %4 = load i8, ptr %3, align 1, !tbaa !18
  %5 = sext i8 %4 to i32
  %6 = icmp eq i32 %5, 45
  br i1 %6, label %7, label %12

7:                                                ; preds = %1
  %8 = load ptr, ptr @stderr, align 8, !tbaa !21
  %9 = load ptr, ptr @progname, align 8, !tbaa !16
  %10 = load ptr, ptr %2, align 8, !tbaa !16
  %11 = call i32 (ptr, ptr, ...) @fprintf(ptr noundef %8, ptr noundef @.str.14, ptr noundef %9, ptr noundef %10) #7
  br label %17

12:                                               ; preds = %1
  %13 = load ptr, ptr @stderr, align 8, !tbaa !21
  %14 = load ptr, ptr @progname, align 8, !tbaa !16
  %15 = load ptr, ptr %2, align 8, !tbaa !16
  %16 = call i32 (ptr, ptr, ...) @fprintf(ptr noundef %13, ptr noundef @.str.15, ptr noundef %14, ptr noundef %15) #7
  br label %17

17:                                               ; preds = %12, %7
  %18 = load ptr, ptr @stderr, align 8, !tbaa !21
  %19 = load ptr, ptr @progname, align 8, !tbaa !16
  %20 = call i32 (ptr, ptr, ...) @fprintf(ptr noundef %18, ptr noundef @.str.16, ptr noundef %19, ptr noundef @Output) #7
  call void @exit(i32 noundef 1) #9
  unreachable
}