; Function Attrs: cold nofree noreturn nounwind uwtable
define internal fastcc void @usage(ptr noundef %0) unnamed_addr #2 {
  %2 = load i8, ptr %0, align 1, !tbaa !9
  %3 = icmp eq i8 %2, 45
  %4 = load ptr, ptr @stderr, align 8, !tbaa !18
  %5 = load ptr, ptr @progname, align 8, !tbaa !4
  %.str.14..str.15 = select i1 %3, ptr @.str.14, ptr @.str.15
  %6 = tail call i32 (ptr, ptr, ...) @fprintf(ptr noundef %4, ptr noundef nonnull %.str.14..str.15, ptr noundef %5, ptr noundef nonnull %0) #13
  %7 = load ptr, ptr @stderr, align 8, !tbaa !18
  %8 = load ptr, ptr @progname, align 8, !tbaa !4
  %9 = tail call i32 (ptr, ptr, ...) @fprintf(ptr noundef %7, ptr noundef nonnull @.str.16, ptr noundef %8, ptr noundef nonnull @Output) #13
  tail call void @exit(i32 noundef 1) #14
  unreachable
}